; Function Attrs: nounwind uwtable
define dso_local ptr @SPI_returntuple(ptr noundef %0, ptr noundef %1) local_unnamed_addr #0 {
  %3 = icmp eq ptr %0, null
  %4 = icmp eq ptr %1, null
  %or.cond = or i1 %3, %4
  br i1 %or.cond, label %5, label %6

5:                                                ; preds = %2
  store i32 -6, ptr @SPI_result, align 4
  br label %27

6:                                                ; preds = %2
  %7 = load ptr, ptr @_SPI_current, align 8
  %8 = icmp eq ptr %7, null
  br i1 %8, label %9, label %10

9:                                                ; preds = %6
  store i32 -4, ptr @SPI_result, align 4
  br label %27

10:                                               ; preds = %6
  %11 = getelementptr inbounds nuw i8, ptr %1, i64 4
  %12 = load i32, ptr %11, align 4
  %13 = icmp eq i32 %12, 2249
  br i1 %13, label %14, label %19

14:                                               ; preds = %10
  %15 = getelementptr inbounds nuw i8, ptr %1, i64 8
  %16 = load i32, ptr %15, align 8
  %17 = icmp slt i32 %16, 0
  br i1 %17, label %18, label %19

18:                                               ; preds = %14
  tail call void @assign_record_type_typmod(ptr noundef nonnull %1) #15
  %.pre = load ptr, ptr @_SPI_current, align 8
  br label %19

19:                                               ; preds = %18, %14, %10
  %20 = phi ptr [ %.pre, %18 ], [ %7, %14 ], [ %7, %10 ]
  %21 = getelementptr inbounds nuw i8, ptr %20, i64 48
  %22 = load ptr, ptr %21, align 8
  %23 = load ptr, ptr @CurrentMemoryContext, align 8
  store ptr %22, ptr @CurrentMemoryContext, align 8
  %24 = tail call i64 @heap_copy_tuple_as_datum(ptr noundef nonnull %0, ptr noundef nonnull %1) #15
  %25 = inttoptr i64 %24 to ptr
  %26 = tail call ptr @pg_detoast_datum(ptr noundef %25) #15
  store ptr %23, ptr @CurrentMemoryContext, align 8
  br label %27

27:                                               ; preds = %19, %9, %5
  %.0 = phi ptr [ null, %5 ], [ null, %9 ], [ %26, %19 ]
  ret ptr %.0
}